; Function Attrs: mustprogress uwtable
define void @_ZN6casadi2MXC2ERKSt4pairIxxE(ptr noundef nonnull align 8 dereferenceable(8) %0, ptr noundef nonnull align 8 dereferenceable(16) %1) unnamed_addr #3 align 2 personality ptr @__gxx_personality_v0 {
  %3 = alloca %"class.casadi::Sparsity", align 8
  tail call void @_ZN6casadi12SharedObjectC2Ev(ptr noundef nonnull align 8 dereferenceable(8) %0)
  invoke void @_ZN6casadi8SparsityC1ERKSt4pairIxxE(ptr noundef nonnull align 8 dereferenceable(8) %3, ptr noundef nonnull align 8 dereferenceable(16) %1)
          to label %4 unwind label %7

4:                                                ; preds = %2
  %5 = invoke noundef ptr @_ZN6casadi10ConstantMX6createERKNS_8SparsityEx(ptr noundef nonnull align 8 dereferenceable(8) %3, i64 noundef 0)
          to label %_ZN6casadi10ConstantMX6createERKNS_8SparsityEi.exit unwind label %9

_ZN6casadi10ConstantMX6createERKNS_8SparsityEi.exit: ; preds = %4
  invoke void @_ZN6casadi12SharedObject3ownEPNS_20SharedObjectInternalE(ptr noundef nonnull align 8 dereferenceable(8) %0, ptr noundef %5)
          to label %6 unwind label %9

6:                                                ; preds = %_ZN6casadi10ConstantMX6createERKNS_8SparsityEi.exit
  call void @_ZN6casadi12SharedObjectD2Ev(ptr noundef nonnull align 8 dereferenceable(8) %3) #27
  ret void

7:                                                ; preds = %2
  %8 = landingpad { ptr, i32 }
          cleanup
  br label %11

9:                                                ; preds = %4, %_ZN6casadi10ConstantMX6createERKNS_8SparsityEi.exit
  %10 = landingpad { ptr, i32 }
          cleanup
  call void @_ZN6casadi12SharedObjectD2Ev(ptr noundef nonnull align 8 dereferenceable(8) %3) #27
  br label %11

11:                                               ; preds = %9, %7
  %.pn = phi { ptr, i32 } [ %10, %9 ], [ %8, %7 ]
  call void @_ZN6casadi12SharedObjectD2Ev(ptr noundef nonnull align 8 dereferenceable(8) %0) #27
  resume { ptr, i32 } %.pn
}